; Function Attrs: nounwind uwtable
define ptr @l_Std_Time_Timestamp_toMillisecondsSinceUnixEpoch(ptr noundef readonly captures(none) %0) local_unnamed_addr #0 {
  %2 = getelementptr inbounds nuw i8, ptr %0, i64 8
  %3 = load ptr, ptr %2, align 8, !tbaa !4
  %4 = load ptr, ptr @l_Std_Time_instReprTimestamp__1___closed__3, align 8, !tbaa !4
  %5 = ptrtoint ptr %3 to i64
  %6 = and i64 %5, 1
  %.not.i14 = icmp eq i64 %6, 0
  br i1 %.not.i14, label %.critedge.i, label %7, !prof !8

7:                                                ; preds = %1
  %8 = ptrtoint ptr %4 to i64
  %9 = and i64 %8, 1
  %.not7.i = icmp eq i64 %9, 0
  br i1 %.not7.i, label %.critedge.i, label %10, !prof !8

10:                                               ; preds = %7
  %11 = shl i64 %5, 31
  %12 = ashr i64 %11, 32
  %13 = shl i64 %8, 31
  %14 = ashr i64 %13, 32
  %15 = mul nsw i64 %14, %12
  %16 = add nsw i64 %15, 2147483648
  %17 = icmp ult i64 %16, 4294967296
  br i1 %17, label %18, label %23, !prof !14

18:                                               ; preds = %10
  %19 = shl nsw i64 %15, 1
  %20 = and i64 %19, 8589934590
  %21 = or disjoint i64 %20, 1
  %22 = inttoptr i64 %21 to ptr
  br label %lean_int_mul.exit

23:                                               ; preds = %10
  %24 = tail call ptr @lean_big_int64_to_int(i64 noundef range(i64 -4611686016279904256, 4611686018427387905) %15) #4
  br label %lean_int_mul.exit

.critedge.i:                                      ; preds = %7, %1
  %25 = tail call ptr @lean_int_big_mul(ptr noundef %3, ptr noundef %4) #4
  br label %lean_int_mul.exit

lean_int_mul.exit:                                ; preds = %18, %23, %.critedge.i
  %.0.i = phi ptr [ %25, %.critedge.i ], [ %22, %18 ], [ %24, %23 ]
  %26 = getelementptr inbounds nuw i8, ptr %0, i64 16
  %27 = load ptr, ptr %26, align 8, !tbaa !4
  %28 = ptrtoint ptr %.0.i to i64
  %29 = and i64 %28, 1
  %.not.i15 = icmp eq i64 %29, 0
  br i1 %.not.i15, label %49, label %30, !prof !8

30:                                               ; preds = %lean_int_mul.exit
  %31 = ptrtoint ptr %27 to i64
  %32 = and i64 %31, 1
  %.not7.i16 = icmp eq i64 %32, 0
  br i1 %.not7.i16, label %lean_int_add.exit.thread23, label %34, !prof !8

lean_int_add.exit.thread23:                       ; preds = %30
  %33 = tail call ptr @lean_int_big_add(ptr noundef %.0.i, ptr noundef %27) #4
  br label %lean_dec.exit11

34:                                               ; preds = %30
  %35 = shl i64 %28, 31
  %36 = ashr i64 %35, 32
  %37 = shl i64 %31, 31
  %38 = ashr i64 %37, 32
  %39 = add nsw i64 %38, %36
  %40 = add nsw i64 %39, 2147483648
  %41 = icmp ult i64 %40, 4294967296
  br i1 %41, label %42, label %47, !prof !14

42:                                               ; preds = %34
  %43 = shl nsw i64 %39, 1
  %44 = and i64 %43, 8589934590
  %45 = or disjoint i64 %44, 1
  %46 = inttoptr i64 %45 to ptr
  br label %lean_dec.exit11

47:                                               ; preds = %34
  %48 = tail call ptr @lean_big_int64_to_int(i64 noundef range(i64 -4611686016279904256, 4611686018427387905) %39) #4
  br label %lean_dec.exit11

49:                                               ; preds = %lean_int_mul.exit
  %50 = tail call ptr @lean_int_big_add(ptr noundef %.0.i, ptr noundef %27) #4
  %51 = load i32, ptr %.0.i, align 4, !tbaa !11
  %52 = icmp sgt i32 %51, 1
  br i1 %52, label %53, label %55, !prof !14

53:                                               ; preds = %49
  %54 = add nsw i32 %51, -1
  store i32 %54, ptr %.0.i, align 4, !tbaa !11
  br label %lean_dec.exit11

55:                                               ; preds = %49
  %.not.i = icmp eq i32 %51, 0
  br i1 %.not.i, label %lean_dec.exit11, label %56

56:                                               ; preds = %55
  tail call void @lean_dec_ref_cold(ptr noundef nonnull %.0.i) #4
  br label %lean_dec.exit11

lean_dec.exit11:                                  ; preds = %47, %42, %56, %55, %53, %lean_int_add.exit.thread23
  %.0.i1722 = phi ptr [ %33, %lean_int_add.exit.thread23 ], [ %50, %53 ], [ %50, %55 ], [ %50, %56 ], [ %48, %47 ], [ %46, %42 ]
  %57 = load ptr, ptr @l_Std_Time_Timestamp_ofMillisecondsSinceUnixEpoch___closed__1, align 8, !tbaa !4
  %58 = ptrtoint ptr %.0.i1722 to i64
  %59 = and i64 %58, 1
  %.not.i19 = icmp eq i64 %59, 0
  br i1 %.not.i19, label %82, label %60, !prof !8

60:                                               ; preds = %lean_dec.exit11
  %61 = ptrtoint ptr %57 to i64
  %62 = and i64 %61, 1
  %.not10.i = icmp eq i64 %62, 0
  br i1 %.not10.i, label %lean_int_div.exit.thread26, label %64, !prof !8

lean_int_div.exit.thread26:                       ; preds = %60
  %63 = tail call ptr @lean_int_big_div(ptr noundef %.0.i1722, ptr noundef %57) #4
  br label %lean_dec.exit

64:                                               ; preds = %60
  %65 = and i64 %61, 8589934590
  %66 = icmp eq i64 %65, 0
  br i1 %66, label %lean_dec.exit, label %67

67:                                               ; preds = %64
  %68 = shl i64 %61, 31
  %69 = ashr i64 %68, 32
  %70 = shl i64 %58, 31
  %71 = ashr i64 %70, 32
  %72 = sdiv i64 %71, %69
  %73 = add nsw i64 %72, 2147483648
  %74 = icmp samesign ult i64 %73, 4294967296
  br i1 %74, label %75, label %80, !prof !14

75:                                               ; preds = %67
  %76 = shl nsw i64 %72, 1
  %77 = and i64 %76, 8589934590
  %78 = or disjoint i64 %77, 1
  %79 = inttoptr i64 %78 to ptr
  br label %lean_dec.exit

80:                                               ; preds = %67
  %81 = tail call ptr @lean_big_int64_to_int(i64 noundef range(i64 -4611686016279904256, 4611686018427387905) %72) #4
  br label %lean_dec.exit

82:                                               ; preds = %lean_dec.exit11
  %83 = tail call ptr @lean_int_big_div(ptr noundef %.0.i1722, ptr noundef %57) #4
  %84 = load i32, ptr %.0.i1722, align 4, !tbaa !11
  %85 = icmp sgt i32 %84, 1
  br i1 %85, label %86, label %88, !prof !14

86:                                               ; preds = %82
  %87 = add nsw i32 %84, -1
  store i32 %87, ptr %.0.i1722, align 4, !tbaa !11
  br label %lean_dec.exit

88:                                               ; preds = %82
  %.not.i12 = icmp eq i32 %84, 0
  br i1 %.not.i12, label %lean_dec.exit, label %89

89:                                               ; preds = %88
  tail call void @lean_dec_ref_cold(ptr noundef nonnull %.0.i1722) #4
  br label %lean_dec.exit

lean_dec.exit:                                    ; preds = %80, %75, %64, %89, %88, %86, %lean_int_div.exit.thread26
  %.1.i25 = phi ptr [ %63, %lean_int_div.exit.thread26 ], [ %83, %86 ], [ %83, %88 ], [ %83, %89 ], [ %81, %80 ], [ %79, %75 ], [ inttoptr (i64 1 to ptr), %64 ]
  ret ptr %.1.i25
}